; Function Attrs: nounwind uwtable
define noalias nonnull ptr @l_Std_Sat_AIG_toCNF_State_empty___boxed(ptr noundef %0) local_unnamed_addr #0 {
  %2 = getelementptr inbounds nuw i8, ptr %0, i64 8
  %3 = load ptr, ptr %2, align 8, !tbaa !9
  %4 = getelementptr i8, ptr %3, i64 8
  %.val.i.i = load i64, ptr %4, align 8, !tbaa !15
  %5 = shl i64 %.val.i.i, 1
  %6 = or disjoint i64 %5, 1
  %7 = inttoptr i64 %6 to ptr
  %8 = tail call ptr @lean_mk_array(ptr noundef nonnull %7, ptr noundef nonnull inttoptr (i64 1 to ptr)) #3
  tail call void @lean_inc_heartbeat() #3
  %9 = tail call noalias ptr @mi_malloc_small(i64 noundef 24) #3
  %10 = icmp eq ptr %9, null
  br i1 %10, label %11, label %l_Std_Sat_AIG_toCNF_State_empty.exit

11:                                               ; preds = %1
  tail call void @lean_internal_panic_out_of_memory() #4
  unreachable

l_Std_Sat_AIG_toCNF_State_empty.exit:             ; preds = %1
  %12 = getelementptr inbounds nuw i8, ptr %9, i64 4
  store i32 1, ptr %9, align 4, !tbaa !4
  store i32 131096, ptr %12, align 4
  %13 = getelementptr inbounds nuw i8, ptr %9, i64 8
  store ptr inttoptr (i64 1 to ptr), ptr %13, align 8, !tbaa !9
  %14 = getelementptr inbounds nuw i8, ptr %9, i64 16
  store ptr %8, ptr %14, align 8, !tbaa !9
  %15 = ptrtoint ptr %0 to i64
  %16 = and i64 %15, 1
  %.not = icmp eq i64 %16, 0
  br i1 %.not, label %17, label %lean_dec.exit

17:                                               ; preds = %l_Std_Sat_AIG_toCNF_State_empty.exit
  %18 = load i32, ptr %0, align 4, !tbaa !4
  %19 = icmp sgt i32 %18, 1
  br i1 %19, label %20, label %22, !prof !13

20:                                               ; preds = %17
  %21 = add nsw i32 %18, -1
  store i32 %21, ptr %0, align 4, !tbaa !4
  br label %lean_dec.exit

22:                                               ; preds = %17
  %.not.i = icmp eq i32 %18, 0
  br i1 %.not.i, label %lean_dec.exit, label %23

23:                                               ; preds = %22
  tail call void @lean_dec_ref_cold(ptr noundef nonnull %0) #3
  br label %lean_dec.exit

lean_dec.exit:                                    ; preds = %23, %22, %20, %l_Std_Sat_AIG_toCNF_State_empty.exit
  ret ptr %9
}